; Function Attrs: mustprogress nofree norecurse nosync nounwind willreturn memory(read, inaccessiblemem: none) uwtable
define hidden i64 @SSL_get_read_sequence(ptr noundef readonly captures(none) %0) local_unnamed_addr #10 {
  %2 = getelementptr inbounds nuw i8, ptr %0, i64 8
  %3 = load ptr, ptr %2, align 8, !tbaa !106
  %4 = load i8, ptr %3, align 8, !tbaa !174
  %.not = icmp eq i8 %4, 0
  br i1 %.not, label %10, label %5

5:                                                ; preds = %1
  %6 = getelementptr inbounds nuw i8, ptr %0, i64 88
  %7 = load ptr, ptr %6, align 8, !tbaa !175
  %8 = getelementptr inbounds nuw i8, ptr %7, i64 288
  %9 = load i64, ptr %8, align 8, !tbaa !243
  br label %50

10:                                               ; preds = %1
  %11 = getelementptr inbounds nuw i8, ptr %0, i64 80
  %12 = load ptr, ptr %11, align 8, !tbaa !136
  %13 = load i8, ptr %12, align 1, !tbaa !157
  %14 = zext i8 %13 to i64
  %15 = shl nuw i64 %14, 56
  %16 = getelementptr inbounds nuw i8, ptr %12, i64 1
  %17 = load i8, ptr %16, align 1, !tbaa !157
  %18 = zext i8 %17 to i64
  %19 = shl nuw nsw i64 %18, 48
  %20 = or disjoint i64 %19, %15
  %21 = getelementptr inbounds nuw i8, ptr %12, i64 2
  %22 = load i8, ptr %21, align 1, !tbaa !157
  %23 = zext i8 %22 to i64
  %24 = shl nuw nsw i64 %23, 40
  %25 = or disjoint i64 %20, %24
  %26 = getelementptr inbounds nuw i8, ptr %12, i64 3
  %27 = load i8, ptr %26, align 1, !tbaa !157
  %28 = zext i8 %27 to i64
  %29 = shl nuw nsw i64 %28, 32
  %30 = or disjoint i64 %25, %29
  %31 = getelementptr inbounds nuw i8, ptr %12, i64 4
  %32 = load i8, ptr %31, align 1, !tbaa !157
  %33 = zext i8 %32 to i64
  %34 = shl nuw nsw i64 %33, 24
  %35 = or disjoint i64 %30, %34
  %36 = getelementptr inbounds nuw i8, ptr %12, i64 5
  %37 = load i8, ptr %36, align 1, !tbaa !157
  %38 = zext i8 %37 to i64
  %39 = shl nuw nsw i64 %38, 16
  %40 = or disjoint i64 %35, %39
  %41 = getelementptr inbounds nuw i8, ptr %12, i64 6
  %42 = load i8, ptr %41, align 1, !tbaa !157
  %43 = zext i8 %42 to i64
  %44 = shl nuw nsw i64 %43, 8
  %45 = or i64 %40, %44
  %46 = getelementptr inbounds nuw i8, ptr %12, i64 7
  %47 = load i8, ptr %46, align 1, !tbaa !157
  %48 = zext i8 %47 to i64
  %49 = or i64 %45, %48
  br label %50

50:                                               ; preds = %10, %5
  %.0 = phi i64 [ %9, %5 ], [ %49, %10 ]
  ret i64 %.0
}